target datalayout = "e-m:e-p270:32:32-p271:32:32-p272:64:64-i64:64-i128:128-f80:128-n8:16:32:64-S128"
target triple = "x86_64-unknown-linux-gnu"

%"class.icu_75::UnicodeString" = type { %"class.icu_75::Replaceable", %"union.icu_75::UnicodeString::StackBufferOrFields" }
%"class.icu_75::Replaceable" = type { %"class.icu_75::UObject" }
%"class.icu_75::UObject" = type { ptr }
%"union.icu_75::UnicodeString::StackBufferOrFields" = type { %struct.anon.0, [32 x i8] }
%struct.anon.0 = type { i16, i32, i32, ptr }
%"class.icu_75::UXMLParser" = type { %"class.icu_75::UObject", %"class.icu_75::RegexMatcher", %"class.icu_75::RegexMatcher", %"class.icu_75::RegexMatcher", %"class.icu_75::RegexMatcher", %"class.icu_75::RegexMatcher", %"class.icu_75::RegexMatcher", %"class.icu_75::RegexMatcher", %"class.icu_75::RegexMatcher", %"class.icu_75::RegexMatcher", %"class.icu_75::RegexMatcher", %"class.icu_75::RegexMatcher", %"class.icu_75::RegexMatcher", %"class.icu_75::RegexMatcher", %"class.icu_75::Hashtable", %"class.icu_75::UStack", i32, %"class.icu_75::UnicodeString" }
%"class.icu_75::RegexMatcher" = type { %"class.icu_75::UObject", ptr, ptr, ptr, ptr, ptr, i64, i32, i64, i64, i64, i64, i64, i64, i64, i64, i8, i8, i8, i64, i64, i64, i64, i8, i8, ptr, ptr, ptr, [8 x i64], i32, i32, i32, i32, ptr, ptr, ptr, ptr, i8, i8, i32, ptr, ptr }
%"class.icu_75::Hashtable" = type { ptr, %struct.UHashtable }
%struct.UHashtable = type { ptr, ptr, ptr, ptr, ptr, ptr, i32, i32, i32, i32, float, float, i8, i8 }
%"class.icu_75::UStack" = type { %"class.icu_75::UVector" }
%"class.icu_75::UVector" = type { %"class.icu_75::UObject", i32, i32, ptr, ptr, ptr }

; Function Attrs: mustprogress nounwind uwtable
define linkonce_odr noundef i32 @_ZNK6icu_7513UnicodeString14getShortLengthEv(ptr noundef nonnull align 8 dereferenceable(64) %this) #0 comdat align 2 {
entry:
  %this.addr = alloca ptr, align 8
  store ptr %this, ptr %this.addr, align 8
  %this1 = load ptr, ptr %this.addr, align 8
  %fUnion = getelementptr inbounds %"class.icu_75::UnicodeString", ptr %this1, i32 0, i32 1
  %fLengthAndFlags = getelementptr inbounds %struct.anon.0, ptr %fUnion, i32 0, i32 0
  %0 = load i16, ptr %fLengthAndFlags, align 8
  %conv = sext i16 %0 to i32
  %shr = ashr i32 %conv, 5
  ret i32 %shr
}

; Function Attrs: mustprogress nounwind uwtable
define linkonce_odr noundef signext i8 @_ZNK6icu_7513UnicodeString14hasShortLengthEv(ptr noundef nonnull align 8 dereferenceable(64) %this) #0 comdat align 2 {
entry:
  %this.addr = alloca ptr, align 8
  store ptr %this, ptr %this.addr, align 8
  %this1 = load ptr, ptr %this.addr, align 8
  %fUnion = getelementptr inbounds %"class.icu_75::UnicodeString", ptr %this1, i32 0, i32 1
  %fLengthAndFlags = getelementptr inbounds %struct.anon.0, ptr %fUnion, i32 0, i32 0
  %0 = load i16, ptr %fLengthAndFlags, align 8
  %conv = sext i16 %0 to i32
  %cmp = icmp sge i32 %conv, 0
  %conv2 = zext i1 %cmp to i8
  ret i8 %conv2
}

; Function Attrs: mustprogress uwtable
define linkonce_odr noundef i32 @_ZNK6icu_7513UnicodeString6lengthEv(ptr noundef nonnull align 8 dereferenceable(64) %this) #1 comdat align 2 {
entry:
  %this.addr = alloca ptr, align 8
  store ptr %this, ptr %this.addr, align 8
  %this1 = load ptr, ptr %this.addr, align 8
  %call = call noundef signext i8 @_ZNK6icu_7513UnicodeString14hasShortLengthEv(ptr noundef nonnull align 8 dereferenceable(64) %this1)
  %tobool = icmp ne i8 %call, 0
  br i1 %tobool, label %cond.true, label %cond.false

cond.true:                                        ; preds = %entry
  %call2 = call noundef i32 @_ZNK6icu_7513UnicodeString14getShortLengthEv(ptr noundef nonnull align 8 dereferenceable(64) %this1)
  br label %cond.end

cond.false:                                       ; preds = %entry
  %fUnion = getelementptr inbounds %"class.icu_75::UnicodeString", ptr %this1, i32 0, i32 1
  %fLength = getelementptr inbounds %struct.anon.0, ptr %fUnion, i32 0, i32 1
  %0 = load i32, ptr %fLength, align 4
  br label %cond.end

cond.end:                                         ; preds = %cond.false, %cond.true
  %cond = phi i32 [ %call2, %cond.true ], [ %0, %cond.false ]
  ret i32 %cond
}

; Function Attrs: mustprogress uwtable
define void @_ZN6icu_7510UXMLParser9parseMiscER10UErrorCode(ptr noundef nonnull align 8 dereferenceable(4576) %this, ptr noundef nonnull align 4 dereferenceable(4) %status) #1 align 2 {
entry:
  %this.addr = alloca ptr, align 8
  %status.addr = alloca ptr, align 8
  store ptr %this, ptr %this.addr, align 8
  store ptr %status, ptr %status.addr, align 8
  %this1 = load ptr, ptr %this.addr, align 8
  br label %for.cond

for.cond:                                         ; preds = %if.then24, %if.then15, %if.then6, %entry
  %fPos = getelementptr inbounds %"class.icu_75::UXMLParser", ptr %this1, i32 0, i32 16
  %0 = load i32, ptr %fPos, align 8
  %mXMLPI = getelementptr inbounds %"class.icu_75::UXMLParser", ptr %this1, i32 0, i32 5
  %call = call noundef nonnull align 8 dereferenceable(64) ptr @_ZNK6icu_7512RegexMatcher5inputEv(ptr noundef nonnull align 8 dereferenceable(336) %mXMLPI)
  %call2 = call noundef i32 @_ZNK6icu_7513UnicodeString6lengthEv(ptr noundef nonnull align 8 dereferenceable(64) %call)
  %cmp = icmp sge i32 %0, %call2
  br i1 %cmp, label %if.then, label %if.end

if.then:                                          ; preds = %for.cond
  br label %for.end

if.end:                                           ; preds = %for.cond
  %mXMLPI3 = getelementptr inbounds %"class.icu_75::UXMLParser", ptr %this1, i32 0, i32 5
  %fPos4 = getelementptr inbounds %"class.icu_75::UXMLParser", ptr %this1, i32 0, i32 16
  %1 = load i32, ptr %fPos4, align 8
  %conv = sext i32 %1 to i64
  %2 = load ptr, ptr %status.addr, align 8
  %call5 = call noundef signext i8 @_ZN6icu_7512RegexMatcher9lookingAtElR10UErrorCode(ptr noundef nonnull align 8 dereferenceable(336) %mXMLPI3, i64 noundef %conv, ptr noundef nonnull align 4 dereferenceable(4) %2)
  %tobool = icmp ne i8 %call5, 0
  br i1 %tobool, label %if.then6, label %if.end10

if.then6:                                         ; preds = %if.end
  %mXMLPI7 = getelementptr inbounds %"class.icu_75::UXMLParser", ptr %this1, i32 0, i32 5
  %3 = load ptr, ptr %status.addr, align 8
  %call8 = call noundef i32 @_ZNK6icu_7512RegexMatcher3endER10UErrorCode(ptr noundef nonnull align 8 dereferenceable(336) %mXMLPI7, ptr noundef nonnull align 4 dereferenceable(4) %3)
  %fPos9 = getelementptr inbounds %"class.icu_75::UXMLParser", ptr %this1, i32 0, i32 16
  store i32 %call8, ptr %fPos9, align 8
  br label %for.cond, !llvm.loop !11

if.end10:                                         ; preds = %if.end
  %mXMLSP = getelementptr inbounds %"class.icu_75::UXMLParser", ptr %this1, i32 0, i32 3
  %fPos11 = getelementptr inbounds %"class.icu_75::UXMLParser", ptr %this1, i32 0, i32 16
  %4 = load i32, ptr %fPos11, align 8
  %conv12 = sext i32 %4 to i64
  %5 = load ptr, ptr %status.addr, align 8
  %call13 = call noundef signext i8 @_ZN6icu_7512RegexMatcher9lookingAtElR10UErrorCode(ptr noundef nonnull align 8 dereferenceable(336) %mXMLSP, i64 noundef %conv12, ptr noundef nonnull align 4 dereferenceable(4) %5)
  %tobool14 = icmp ne i8 %call13, 0
  br i1 %tobool14, label %if.then15, label %if.end19

if.then15:                                        ; preds = %if.end10
  %mXMLSP16 = getelementptr inbounds %"class.icu_75::UXMLParser", ptr %this1, i32 0, i32 3
  %6 = load ptr, ptr %status.addr, align 8
  %call17 = call noundef i32 @_ZNK6icu_7512RegexMatcher3endER10UErrorCode(ptr noundef nonnull align 8 dereferenceable(336) %mXMLSP16, ptr noundef nonnull align 4 dereferenceable(4) %6)
  %fPos18 = getelementptr inbounds %"class.icu_75::UXMLParser", ptr %this1, i32 0, i32 16
  store i32 %call17, ptr %fPos18, align 8
  br label %for.cond, !llvm.loop !11

if.end19:                                         ; preds = %if.end10
  %mXMLComment = getelementptr inbounds %"class.icu_75::UXMLParser", ptr %this1, i32 0, i32 2
  %fPos20 = getelementptr inbounds %"class.icu_75::UXMLParser", ptr %this1, i32 0, i32 16
  %7 = load i32, ptr %fPos20, align 8
  %conv21 = sext i32 %7 to i64
  %8 = load ptr, ptr %status.addr, align 8
  %call22 = call noundef signext i8 @_ZN6icu_7512RegexMatcher9lookingAtElR10UErrorCode(ptr noundef nonnull align 8 dereferenceable(336) %mXMLComment, i64 noundef %conv21, ptr noundef nonnull align 4 dereferenceable(4) %8)
  %tobool23 = icmp ne i8 %call22, 0
  br i1 %tobool23, label %if.then24, label %if.end28

if.then24:                                        ; preds = %if.end19
  %mXMLComment25 = getelementptr inbounds %"class.icu_75::UXMLParser", ptr %this1, i32 0, i32 2
  %9 = load ptr, ptr %status.addr, align 8
  %call26 = call noundef i32 @_ZNK6icu_7512RegexMatcher3endER10UErrorCode(ptr noundef nonnull align 8 dereferenceable(336) %mXMLComment25, ptr noundef nonnull align 4 dereferenceable(4) %9)
  %fPos27 = getelementptr inbounds %"class.icu_75::UXMLParser", ptr %this1, i32 0, i32 16
  store i32 %call26, ptr %fPos27, align 8
  br label %for.cond, !llvm.loop !11

if.end28:                                         ; preds = %if.end19
  br label %for.end

for.end:                                          ; preds = %if.end28, %if.then
  ret void
}