; Function Attrs: mustprogress uwtable
define void @_ZN6icu_7510UXMLParser9parseMiscER10UErrorCode(ptr noundef nonnull align 8 dereferenceable(4576) %this, ptr noundef nonnull align 4 dereferenceable(4) %status) local_unnamed_addr #1 align 2 {
entry:
  %mXMLComment = getelementptr inbounds i8, ptr %this, i64 344
  %fPos = getelementptr inbounds i8, ptr %this, i64 4504
  %mXMLPI = getelementptr inbounds i8, ptr %this, i64 1352
  %0 = load i32, ptr %fPos, align 8
  %call6 = tail call noundef nonnull align 8 dereferenceable(64) ptr @_ZNK6icu_7512RegexMatcher5inputEv(ptr noundef nonnull align 8 dereferenceable(336) %mXMLPI)
  %fUnion.i.i7 = getelementptr inbounds i8, ptr %call6, i64 8
  %1 = load i16, ptr %fUnion.i.i7, align 8
  %cmp.i.i8 = icmp slt i16 %1, 0
  %2 = ashr i16 %1, 5
  %shr.i.i9 = sext i16 %2 to i32
  %fLength.i10 = getelementptr inbounds i8, ptr %call6, i64 12
  %3 = load i32, ptr %fLength.i10, align 4
  %cond.i11 = select i1 %cmp.i.i8, i32 %3, i32 %shr.i.i9
  %cmp.not12 = icmp slt i32 %0, %cond.i11
  br i1 %cmp.not12, label %if.end.lr.ph, label %for.end

if.end.lr.ph:                                     ; preds = %entry
  %mXMLSP = getelementptr inbounds i8, ptr %this, i64 680
  br label %if.end

if.end:                                           ; preds = %if.end.lr.ph, %for.cond.backedge
  %4 = load i32, ptr %fPos, align 8
  %conv = sext i32 %4 to i64
  %call5 = tail call noundef signext i8 @_ZN6icu_7512RegexMatcher9lookingAtElR10UErrorCode(ptr noundef nonnull align 8 dereferenceable(336) %mXMLPI, i64 noundef %conv, ptr noundef nonnull align 4 dereferenceable(4) %status)
  %tobool.not = icmp eq i8 %call5, 0
  br i1 %tobool.not, label %if.end10, label %for.cond.backedge

for.cond.backedge:                                ; preds = %if.end, %if.end19, %if.end10
  %mXMLPI.sink = phi ptr [ %mXMLSP, %if.end10 ], [ %mXMLComment, %if.end19 ], [ %mXMLPI, %if.end ]
  %call8 = tail call noundef i32 @_ZNK6icu_7512RegexMatcher3endER10UErrorCode(ptr noundef nonnull align 8 dereferenceable(336) %mXMLPI.sink, ptr noundef nonnull align 4 dereferenceable(4) %status)
  store i32 %call8, ptr %fPos, align 8
  %call = tail call noundef nonnull align 8 dereferenceable(64) ptr @_ZNK6icu_7512RegexMatcher5inputEv(ptr noundef nonnull align 8 dereferenceable(336) %mXMLPI)
  %fUnion.i.i = getelementptr inbounds i8, ptr %call, i64 8
  %5 = load i16, ptr %fUnion.i.i, align 8
  %cmp.i.i = icmp slt i16 %5, 0
  %6 = ashr i16 %5, 5
  %shr.i.i = sext i16 %6 to i32
  %fLength.i = getelementptr inbounds i8, ptr %call, i64 12
  %7 = load i32, ptr %fLength.i, align 4
  %cond.i = select i1 %cmp.i.i, i32 %7, i32 %shr.i.i
  %cmp.not = icmp slt i32 %call8, %cond.i
  br i1 %cmp.not, label %if.end, label %for.end, !llvm.loop !11

if.end10:                                         ; preds = %if.end
  %8 = load i32, ptr %fPos, align 8
  %conv12 = sext i32 %8 to i64
  %call13 = tail call noundef signext i8 @_ZN6icu_7512RegexMatcher9lookingAtElR10UErrorCode(ptr noundef nonnull align 8 dereferenceable(336) %mXMLSP, i64 noundef %conv12, ptr noundef nonnull align 4 dereferenceable(4) %status)
  %tobool14.not = icmp eq i8 %call13, 0
  br i1 %tobool14.not, label %if.end19, label %for.cond.backedge

if.end19:                                         ; preds = %if.end10
  %9 = load i32, ptr %fPos, align 8
  %conv21 = sext i32 %9 to i64
  %call22 = tail call noundef signext i8 @_ZN6icu_7512RegexMatcher9lookingAtElR10UErrorCode(ptr noundef nonnull align 8 dereferenceable(336) %mXMLComment, i64 noundef %conv21, ptr noundef nonnull align 4 dereferenceable(4) %status)
  %tobool23.not = icmp eq i8 %call22, 0
  br i1 %tobool23.not, label %for.end, label %for.cond.backedge

for.end:                                          ; preds = %for.cond.backedge, %if.end19, %entry
  ret void
}